target datalayout = "e-m:e-p270:32:32-p271:32:32-p272:64:64-i64:64-i128:128-f80:128-n8:16:32:64-S128"
target triple = "x86_64-pc-linux-gnu"

%struct._php_stream = type { ptr, ptr, %struct._php_stream_filter_chain, %struct._php_stream_filter_chain, ptr, ptr, %struct._zval_struct, i16, [16 x i8], i32, ptr, ptr, ptr, ptr, i64, ptr, i64, i64, i64, i64, ptr }
%struct._php_stream_filter_chain = type { ptr, ptr, ptr }
%struct._zval_struct = type { %union._zend_value, %union.anon, %union.anon.2 }
%union._zend_value = type { i64 }
%union.anon = type { i32 }
%union.anon.2 = type { i32 }
%struct.php_stream_memory_data = type { ptr, i64, i32 }
%struct._zend_string = type { %struct._zend_refcounted_h, i64, i64, [1 x i8] }
%struct._zend_refcounted_h = type { i32, %union.anon.3 }
%union.anon.3 = type { i32 }
%struct.php_stream_temp_data = type { ptr, i64, i32, %struct._zval_struct, ptr }

@.str.8 = private unnamed_addr constant [4 x i8] c"php\00", align 1
@.str.9 = private unnamed_addr constant [81 x i8] c"Unable to create temporary file, Check permissions in temporary files directory.\00", align 1

; Function Attrs: nounwind uwtable
define ptr @_php_stream_memory_get_buffer(ptr noundef %0) #0 {
  %2 = alloca ptr, align 8
  %3 = alloca ptr, align 8
  store ptr %0, ptr %2, align 8
  %4 = load ptr, ptr %2, align 8
  %5 = getelementptr inbounds %struct._php_stream, ptr %4, i32 0, i32 1
  %6 = load ptr, ptr %5, align 8
  store ptr %6, ptr %3, align 8
  %7 = load ptr, ptr %3, align 8
  %8 = icmp ne ptr %7, null
  call void @llvm.assume(i1 %8)
  %9 = load ptr, ptr %3, align 8
  %10 = getelementptr inbounds %struct.php_stream_memory_data, ptr %9, i32 0, i32 0
  %11 = load ptr, ptr %10, align 8
  ret ptr %11
}

; Function Attrs: nounwind uwtable
define internal i64 @php_stream_temp_write(ptr noundef %0, ptr noundef %1, i64 noundef %2) #0 {
  %4 = alloca i64, align 8
  %5 = alloca ptr, align 8
  %6 = alloca ptr, align 8
  %7 = alloca i64, align 8
  %8 = alloca ptr, align 8
  %9 = alloca i64, align 8
  %10 = alloca ptr, align 8
  %11 = alloca ptr, align 8
  store ptr %0, ptr %5, align 8
  store ptr %1, ptr %6, align 8
  store i64 %2, ptr %7, align 8
  %12 = load ptr, ptr %5, align 8
  %13 = getelementptr inbounds %struct._php_stream, ptr %12, i32 0, i32 1
  %14 = load ptr, ptr %13, align 8
  store ptr %14, ptr %8, align 8
  %15 = load ptr, ptr %8, align 8
  %16 = getelementptr inbounds %struct.php_stream_temp_data, ptr %15, i32 0, i32 0
  %17 = load ptr, ptr %16, align 8
  %18 = icmp ne ptr %17, null
  br i1 %18, label %20, label %19

19:                                               ; preds = %3
  store i64 -1, ptr %4, align 8
  br label %85

20:                                               ; preds = %3
  %21 = load ptr, ptr %8, align 8
  %22 = getelementptr inbounds %struct.php_stream_temp_data, ptr %21, i32 0, i32 0
  %23 = load ptr, ptr %22, align 8
  %24 = getelementptr inbounds %struct._php_stream, ptr %23, i32 0, i32 0
  %25 = load ptr, ptr %24, align 8
  %26 = icmp eq ptr %25, @php_stream_memory_ops
  br i1 %26, label %27, label %78

27:                                               ; preds = %20
  %28 = load ptr, ptr %8, align 8
  %29 = getelementptr inbounds %struct.php_stream_temp_data, ptr %28, i32 0, i32 0
  %30 = load ptr, ptr %29, align 8
  %31 = call i64 @_php_stream_tell(ptr noundef %30)
  store i64 %31, ptr %9, align 8
  %32 = load i64, ptr %9, align 8
  %33 = load i64, ptr %7, align 8
  %34 = add i64 %32, %33
  %35 = load ptr, ptr %8, align 8
  %36 = getelementptr inbounds %struct.php_stream_temp_data, ptr %35, i32 0, i32 1
  %37 = load i64, ptr %36, align 8
  %38 = icmp uge i64 %34, %37
  br i1 %38, label %39, label %77

39:                                               ; preds = %27
  %40 = load ptr, ptr %8, align 8
  %41 = getelementptr inbounds %struct.php_stream_temp_data, ptr %40, i32 0, i32 0
  %42 = load ptr, ptr %41, align 8
  %43 = call ptr @_php_stream_memory_get_buffer(ptr noundef %42)
  store ptr %43, ptr %10, align 8
  %44 = load ptr, ptr %8, align 8
  %45 = getelementptr inbounds %struct.php_stream_temp_data, ptr %44, i32 0, i32 4
  %46 = load ptr, ptr %45, align 8
  %47 = call ptr @_php_stream_fopen_temporary_file(ptr noundef %46, ptr noundef @.str.8, ptr noundef null)
  store ptr %47, ptr %11, align 8
  %48 = load ptr, ptr %11, align 8
  %49 = icmp eq ptr %48, null
  br i1 %49, label %50, label %51

50:                                               ; preds = %39
  call void (ptr, i32, ptr, ...) @php_error_docref(ptr noundef null, i32 noundef 2, ptr noundef @.str.9)
  store i64 0, ptr %4, align 8
  br label %85

51:                                               ; preds = %39
  %52 = load ptr, ptr %11, align 8
  %53 = load ptr, ptr %10, align 8
  %54 = getelementptr inbounds %struct._zend_string, ptr %53, i32 0, i32 3
  %55 = getelementptr inbounds [1 x i8], ptr %54, i64 0, i64 0
  %56 = load ptr, ptr %10, align 8
  %57 = getelementptr inbounds %struct._zend_string, ptr %56, i32 0, i32 2
  %58 = load i64, ptr %57, align 8
  %59 = call i64 @_php_stream_write(ptr noundef %52, ptr noundef %55, i64 noundef %58)
  %60 = load ptr, ptr %8, align 8
  %61 = getelementptr inbounds %struct.php_stream_temp_data, ptr %60, i32 0, i32 0
  %62 = load ptr, ptr %61, align 8
  %63 = call i32 @_php_stream_free_enclosed(ptr noundef %62, i32 noundef 3)
  %64 = load ptr, ptr %11, align 8
  %65 = load ptr, ptr %8, align 8
  %66 = getelementptr inbounds %struct.php_stream_temp_data, ptr %65, i32 0, i32 0
  store ptr %64, ptr %66, align 8
  %67 = load ptr, ptr %5, align 8
  %68 = load ptr, ptr %8, align 8
  %69 = getelementptr inbounds %struct.php_stream_temp_data, ptr %68, i32 0, i32 0
  %70 = load ptr, ptr %69, align 8
  %71 = call ptr @php_stream_encloses(ptr noundef %67, ptr noundef %70)
  %72 = load ptr, ptr %8, align 8
  %73 = getelementptr inbounds %struct.php_stream_temp_data, ptr %72, i32 0, i32 0
  %74 = load ptr, ptr %73, align 8
  %75 = load i64, ptr %9, align 8
  %76 = call i32 @_php_stream_seek(ptr noundef %74, i64 noundef %75, i32 noundef 0)
  br label %77

77:                                               ; preds = %51, %27
  br label %78

78:                                               ; preds = %77, %20
  %79 = load ptr, ptr %8, align 8
  %80 = getelementptr inbounds %struct.php_stream_temp_data, ptr %79, i32 0, i32 0
  %81 = load ptr, ptr %80, align 8
  %82 = load ptr, ptr %6, align 8
  %83 = load i64, ptr %7, align 8
  %84 = call i64 @_php_stream_write(ptr noundef %81, ptr noundef %82, i64 noundef %83)
  store i64 %84, ptr %4, align 8
  br label %85

85:                                               ; preds = %78, %50, %19
  %86 = load i64, ptr %4, align 8
  ret i64 %86
}