; Function Attrs: nounwind uwtable
define internal i64 @php_stream_temp_write(ptr noundef %0, ptr noundef %1, i64 noundef %2) #0 {
  %4 = getelementptr inbounds i8, ptr %0, i64 8
  %5 = load ptr, ptr %4, align 8
  %6 = load ptr, ptr %5, align 8
  %.not = icmp eq ptr %6, null
  br i1 %.not, label %37, label %7

7:                                                ; preds = %3
  %8 = load ptr, ptr %6, align 8
  %9 = icmp eq ptr %8, @php_stream_memory_ops
  br i1 %9, label %10, label %34

10:                                               ; preds = %7
  %11 = tail call i64 @_php_stream_tell(ptr noundef nonnull %6) #20
  %12 = add i64 %11, %2
  %13 = getelementptr inbounds i8, ptr %5, i64 8
  %14 = load i64, ptr %13, align 8
  %.not25 = icmp ult i64 %12, %14
  %.pre26 = load ptr, ptr %5, align 8
  br i1 %.not25, label %34, label %15

15:                                               ; preds = %10
  %16 = getelementptr inbounds i8, ptr %.pre26, i64 8
  %17 = load ptr, ptr %16, align 8, !nonnull !4, !noundef !4
  %18 = load ptr, ptr %17, align 8
  %19 = getelementptr inbounds i8, ptr %5, i64 40
  %20 = load ptr, ptr %19, align 8
  %21 = tail call ptr @_php_stream_fopen_temporary_file(ptr noundef %20, ptr noundef nonnull @.str.8, ptr noundef null) #20
  %22 = icmp eq ptr %21, null
  br i1 %22, label %23, label %24

23:                                               ; preds = %15
  tail call void (ptr, i32, ptr, ...) @php_error_docref(ptr noundef null, i32 noundef 2, ptr noundef nonnull @.str.9) #20
  br label %37

24:                                               ; preds = %15
  %25 = getelementptr inbounds i8, ptr %18, i64 24
  %26 = getelementptr inbounds i8, ptr %18, i64 16
  %27 = load i64, ptr %26, align 8
  %28 = tail call i64 @_php_stream_write(ptr noundef nonnull %21, ptr noundef nonnull %25, i64 noundef %27) #20
  %29 = load ptr, ptr %5, align 8
  %30 = tail call i32 @_php_stream_free_enclosed(ptr noundef %29, i32 noundef 3) #20
  store ptr %21, ptr %5, align 8
  %31 = tail call ptr @php_stream_encloses(ptr noundef nonnull %0, ptr noundef nonnull %21) #20
  %32 = load ptr, ptr %5, align 8
  %33 = tail call i32 @_php_stream_seek(ptr noundef %32, i64 noundef %11, i32 noundef 0) #20
  %.pre = load ptr, ptr %5, align 8
  br label %34

34:                                               ; preds = %10, %24, %7
  %35 = phi ptr [ %.pre26, %10 ], [ %.pre, %24 ], [ %6, %7 ]
  %36 = tail call i64 @_php_stream_write(ptr noundef %35, ptr noundef %1, i64 noundef %2) #20
  br label %37

37:                                               ; preds = %3, %34, %23
  %.0 = phi i64 [ 0, %23 ], [ %36, %34 ], [ -1, %3 ]
  ret i64 %.0
}